target datalayout = "e-m:e-p270:32:32-p271:32:32-p272:64:64-i64:64-i128:128-f80:128-n8:16:32:64-S128"
target triple = "x86_64-pc-linux-gnu"

%struct._object = type { %union.anon, ptr }
%union.anon = type { i64 }

@.str.65 = private unnamed_addr constant [40 x i8] c"../cpython/Modules/_testcapi/pyatomic.c\00", align 1
@_Py_NoneStruct = external global %struct._object, align 8
@.str.216 = private unnamed_addr constant [47 x i8] c"_Py_atomic_exchange_uint8(&x, y) == (uint8_t)0\00", align 1
@__PRETTY_FUNCTION__.test_atomic_exchange_uint8 = private unnamed_addr constant [61 x i8] c"PyObject *test_atomic_exchange_uint8(PyObject *, PyObject *)\00", align 1
@.str.217 = private unnamed_addr constant [16 x i8] c"x == (uint8_t)1\00", align 1
@.str.218 = private unnamed_addr constant [47 x i8] c"_Py_atomic_exchange_uint8(&x, z) == (uint8_t)1\00", align 1
@.str.219 = private unnamed_addr constant [16 x i8] c"x == (uint8_t)2\00", align 1
@.str.220 = private unnamed_addr constant [47 x i8] c"_Py_atomic_exchange_uint8(&x, y) == (uint8_t)2\00", align 1

; Function Attrs: inlinehint nounwind uwtable
define internal zeroext i8 @_Py_atomic_exchange_uint8(ptr noundef %0, i8 noundef zeroext %1) #3 {
  %3 = alloca ptr, align 8
  %4 = alloca i8, align 1
  %5 = alloca i8, align 1
  %6 = alloca i8, align 1
  store ptr %0, ptr %3, align 8, !tbaa !16
  store i8 %1, ptr %4, align 1, !tbaa !8
  %7 = load ptr, ptr %3, align 8, !tbaa !16
  %8 = load i8, ptr %4, align 1, !tbaa !8
  store i8 %8, ptr %5, align 1, !tbaa !8
  %9 = load i8, ptr %5, align 1
  %10 = atomicrmw xchg ptr %7, i8 %9 seq_cst, align 1
  store i8 %10, ptr %6, align 1
  %11 = load i8, ptr %6, align 1, !tbaa !8
  ret i8 %11
}

; Function Attrs: nounwind uwtable
define internal ptr @test_atomic_exchange_uint8(ptr noundef %0, ptr noundef %1) #0 {
  %3 = alloca ptr, align 8
  %4 = alloca ptr, align 8
  %5 = alloca i8, align 1
  %6 = alloca i8, align 1
  %7 = alloca i8, align 1
  store ptr %0, ptr %3, align 8, !tbaa !3
  store ptr %1, ptr %4, align 8, !tbaa !3
  call void @llvm.lifetime.start.p0(i64 1, ptr %5) #5
  store i8 0, ptr %5, align 1, !tbaa !8
  call void @llvm.lifetime.start.p0(i64 1, ptr %6) #5
  store i8 1, ptr %6, align 1, !tbaa !8
  call void @llvm.lifetime.start.p0(i64 1, ptr %7) #5
  store i8 2, ptr %7, align 1, !tbaa !8
  %8 = load i8, ptr %6, align 1, !tbaa !8
  %9 = call zeroext i8 @_Py_atomic_exchange_uint8(ptr noundef %5, i8 noundef zeroext %8)
  %10 = zext i8 %9 to i32
  %11 = icmp eq i32 %10, 0
  br i1 %11, label %12, label %13

12:                                               ; preds = %2
  br label %15

13:                                               ; preds = %2
  call void @__assert_fail(ptr noundef @.str.216, ptr noundef @.str.65, i32 noundef 89, ptr noundef @__PRETTY_FUNCTION__.test_atomic_exchange_uint8) #6
  unreachable

14:                                               ; No predecessors!
  br label %15

15:                                               ; preds = %14, %12
  %16 = load i8, ptr %5, align 1, !tbaa !8
  %17 = zext i8 %16 to i32
  %18 = icmp eq i32 %17, 1
  br i1 %18, label %19, label %20

19:                                               ; preds = %15
  br label %22

20:                                               ; preds = %15
  call void @__assert_fail(ptr noundef @.str.217, ptr noundef @.str.65, i32 noundef 89, ptr noundef @__PRETTY_FUNCTION__.test_atomic_exchange_uint8) #6
  unreachable

21:                                               ; No predecessors!
  br label %22

22:                                               ; preds = %21, %19
  %23 = load i8, ptr %7, align 1, !tbaa !8
  %24 = call zeroext i8 @_Py_atomic_exchange_uint8(ptr noundef %5, i8 noundef zeroext %23)
  %25 = zext i8 %24 to i32
  %26 = icmp eq i32 %25, 1
  br i1 %26, label %27, label %28

27:                                               ; preds = %22
  br label %30

28:                                               ; preds = %22
  call void @__assert_fail(ptr noundef @.str.218, ptr noundef @.str.65, i32 noundef 89, ptr noundef @__PRETTY_FUNCTION__.test_atomic_exchange_uint8) #6
  unreachable

29:                                               ; No predecessors!
  br label %30

30:                                               ; preds = %29, %27
  %31 = load i8, ptr %5, align 1, !tbaa !8
  %32 = zext i8 %31 to i32
  %33 = icmp eq i32 %32, 2
  br i1 %33, label %34, label %35

34:                                               ; preds = %30
  br label %37

35:                                               ; preds = %30
  call void @__assert_fail(ptr noundef @.str.219, ptr noundef @.str.65, i32 noundef 89, ptr noundef @__PRETTY_FUNCTION__.test_atomic_exchange_uint8) #6
  unreachable

36:                                               ; No predecessors!
  br label %37

37:                                               ; preds = %36, %34
  %38 = load i8, ptr %6, align 1, !tbaa !8
  %39 = call zeroext i8 @_Py_atomic_exchange_uint8(ptr noundef %5, i8 noundef zeroext %38)
  %40 = zext i8 %39 to i32
  %41 = icmp eq i32 %40, 2
  br i1 %41, label %42, label %43

42:                                               ; preds = %37
  br label %45

43:                                               ; preds = %37
  call void @__assert_fail(ptr noundef @.str.220, ptr noundef @.str.65, i32 noundef 89, ptr noundef @__PRETTY_FUNCTION__.test_atomic_exchange_uint8) #6
  unreachable

44:                                               ; No predecessors!
  br label %45

45:                                               ; preds = %44, %42
  %46 = load i8, ptr %5, align 1, !tbaa !8
  %47 = zext i8 %46 to i32
  %48 = icmp eq i32 %47, 1
  br i1 %48, label %49, label %50

49:                                               ; preds = %45
  br label %52

50:                                               ; preds = %45
  call void @__assert_fail(ptr noundef @.str.217, ptr noundef @.str.65, i32 noundef 89, ptr noundef @__PRETTY_FUNCTION__.test_atomic_exchange_uint8) #6
  unreachable

51:                                               ; No predecessors!
  br label %52

52:                                               ; preds = %51, %49
  call void @llvm.lifetime.end.p0(i64 1, ptr %7) #5
  call void @llvm.lifetime.end.p0(i64 1, ptr %6) #5
  call void @llvm.lifetime.end.p0(i64 1, ptr %5) #5
  ret ptr @_Py_NoneStruct
}