; Function Attrs: nounwind uwtable
define internal noundef nonnull ptr @test_atomic_exchange_uint8(ptr readnone captures(none) %0, ptr readnone captures(none) %1) #0 {
  %3 = alloca i8, align 1
  call void @llvm.lifetime.start.p0(i64 1, ptr nonnull %3) #6
  store i8 0, ptr %3, align 1, !tbaa !3
  %4 = atomicrmw xchg ptr %3, i8 1 seq_cst, align 1
  %5 = icmp eq i8 %4, 0
  br i1 %5, label %7, label %6

6:                                                ; preds = %2
  call void @__assert_fail(ptr noundef nonnull @.str.216, ptr noundef nonnull @.str.65, i32 noundef 89, ptr noundef nonnull @__PRETTY_FUNCTION__.test_atomic_exchange_uint8) #7
  unreachable

7:                                                ; preds = %2
  %8 = load i8, ptr %3, align 1, !tbaa !3
  %9 = icmp eq i8 %8, 1
  br i1 %9, label %11, label %10

10:                                               ; preds = %7
  call void @__assert_fail(ptr noundef nonnull @.str.217, ptr noundef nonnull @.str.65, i32 noundef 89, ptr noundef nonnull @__PRETTY_FUNCTION__.test_atomic_exchange_uint8) #7
  unreachable

11:                                               ; preds = %7
  %12 = atomicrmw xchg ptr %3, i8 2 seq_cst, align 1
  %13 = icmp eq i8 %12, 1
  br i1 %13, label %15, label %14

14:                                               ; preds = %11
  call void @__assert_fail(ptr noundef nonnull @.str.218, ptr noundef nonnull @.str.65, i32 noundef 89, ptr noundef nonnull @__PRETTY_FUNCTION__.test_atomic_exchange_uint8) #7
  unreachable

15:                                               ; preds = %11
  %16 = load i8, ptr %3, align 1, !tbaa !3
  %17 = icmp eq i8 %16, 2
  br i1 %17, label %19, label %18

18:                                               ; preds = %15
  call void @__assert_fail(ptr noundef nonnull @.str.219, ptr noundef nonnull @.str.65, i32 noundef 89, ptr noundef nonnull @__PRETTY_FUNCTION__.test_atomic_exchange_uint8) #7
  unreachable

19:                                               ; preds = %15
  %20 = atomicrmw xchg ptr %3, i8 1 seq_cst, align 1
  %21 = icmp eq i8 %20, 2
  br i1 %21, label %23, label %22

22:                                               ; preds = %19
  call void @__assert_fail(ptr noundef nonnull @.str.220, ptr noundef nonnull @.str.65, i32 noundef 89, ptr noundef nonnull @__PRETTY_FUNCTION__.test_atomic_exchange_uint8) #7
  unreachable

23:                                               ; preds = %19
  %24 = load i8, ptr %3, align 1, !tbaa !3
  %25 = icmp eq i8 %24, 1
  br i1 %25, label %27, label %26

26:                                               ; preds = %23
  call void @__assert_fail(ptr noundef nonnull @.str.217, ptr noundef nonnull @.str.65, i32 noundef 89, ptr noundef nonnull @__PRETTY_FUNCTION__.test_atomic_exchange_uint8) #7
  unreachable

27:                                               ; preds = %23
  call void @llvm.lifetime.end.p0(i64 1, ptr nonnull %3) #6
  ret ptr @_Py_NoneStruct
}